target datalayout = "e-m:e-p270:32:32-p271:32:32-p272:64:64-i64:64-i128:128-f80:128-n8:16:32:64-S128"
target triple = "x86_64-pc-linux-gnu"

%struct.AVDictionaryEntry = type { ptr, ptr }

@.str.89 = private unnamed_addr constant [22 x i8] c"Option %s not found.\0A\00", align 1

; Function Attrs: nounwind uwtable
define i32 @check_avoptions(ptr noundef %0) #0 {
  %2 = alloca i32, align 4
  %3 = alloca ptr, align 8
  %4 = alloca ptr, align 8
  %5 = alloca i32, align 4
  store ptr %0, ptr %3, align 8, !tbaa !105
  call void @llvm.lifetime.start.p0(i64 8, ptr %4) #11
  %6 = load ptr, ptr %3, align 8, !tbaa !105
  %7 = call ptr @av_dict_iterate(ptr noundef %6, ptr noundef null)
  store ptr %7, ptr %4, align 8, !tbaa !180
  %8 = load ptr, ptr %4, align 8, !tbaa !180
  %9 = icmp ne ptr %8, null
  br i1 %9, label %10, label %14

10:                                               ; preds = %1
  %11 = load ptr, ptr %4, align 8, !tbaa !180
  %12 = getelementptr inbounds nuw %struct.AVDictionaryEntry, ptr %11, i32 0, i32 0
  %13 = load ptr, ptr %12, align 8, !tbaa !195
  call void (ptr, i32, ptr, ...) @av_log(ptr noundef null, i32 noundef 8, ptr noundef @.str.89, ptr noundef %13)
  store i32 -1414549496, ptr %2, align 4
  store i32 1, ptr %5, align 4
  br label %15

14:                                               ; preds = %1
  store i32 0, ptr %2, align 4
  store i32 1, ptr %5, align 4
  br label %15

15:                                               ; preds = %14, %10
  call void @llvm.lifetime.end.p0(i64 8, ptr %4) #11
  %16 = load i32, ptr %2, align 4
  ret i32 %16
}