; Function Attrs: nounwind uwtable
define range(i32 -1414549496, 1) i32 @check_avoptions(ptr noundef %0) local_unnamed_addr #0 {
  %2 = tail call ptr @av_dict_iterate(ptr noundef %0, ptr noundef null) #15
  %.not = icmp eq ptr %2, null
  br i1 %.not, label %5, label %3

3:                                                ; preds = %1
  %4 = load ptr, ptr %2, align 8, !tbaa !166
  tail call void (ptr, i32, ptr, ...) @av_log(ptr noundef null, i32 noundef 8, ptr noundef nonnull @.str.89, ptr noundef %4) #15
  br label %5

5:                                                ; preds = %1, %3
  %.0 = phi i32 [ -1414549496, %3 ], [ 0, %1 ]
  ret i32 %.0
}